target datalayout = "e-m:e-p270:32:32-p271:32:32-p272:64:64-i64:64-i128:128-f80:128-n8:16:32:64-S128"
target triple = "x86_64-pc-linux-gnu"

%struct.Mem_Step_t_ = type { i32, ptr, i32, ptr, i32, i32, ptr }

; Function Attrs: nounwind uwtable
define void @Mem_StepStop(ptr noundef %0, i32 noundef %1) #0 {
  %3 = alloca ptr, align 8
  %4 = alloca i32, align 4
  %5 = alloca i32, align 4
  store ptr %0, ptr %3, align 8, !tbaa !44
  store i32 %1, ptr %4, align 4, !tbaa !3
  call void @llvm.lifetime.start.p0(i64 4, ptr %5) #7
  store i32 0, ptr %5, align 4, !tbaa !3
  br label %6

6:                                                ; preds = %21, %2
  %7 = load i32, ptr %5, align 4, !tbaa !3
  %8 = load ptr, ptr %3, align 8, !tbaa !44
  %9 = getelementptr inbounds nuw %struct.Mem_Step_t_, ptr %8, i32 0, i32 0
  %10 = load i32, ptr %9, align 8, !tbaa !46
  %11 = icmp slt i32 %7, %10
  br i1 %11, label %12, label %24

12:                                               ; preds = %6
  %13 = load ptr, ptr %3, align 8, !tbaa !44
  %14 = getelementptr inbounds nuw %struct.Mem_Step_t_, ptr %13, i32 0, i32 1
  %15 = load ptr, ptr %14, align 8, !tbaa !49
  %16 = load i32, ptr %5, align 4, !tbaa !3
  %17 = sext i32 %16 to i64
  %18 = getelementptr inbounds ptr, ptr %15, i64 %17
  %19 = load ptr, ptr %18, align 8, !tbaa !7
  %20 = load i32, ptr %4, align 4, !tbaa !3
  call void @Mem_FixedStop(ptr noundef %19, i32 noundef %20)
  br label %21

21:                                               ; preds = %12
  %22 = load i32, ptr %5, align 4, !tbaa !3
  %23 = add nsw i32 %22, 1
  store i32 %23, ptr %5, align 4, !tbaa !3
  br label %6, !llvm.loop !56

24:                                               ; preds = %6
  %25 = load ptr, ptr %3, align 8, !tbaa !44
  %26 = getelementptr inbounds nuw %struct.Mem_Step_t_, ptr %25, i32 0, i32 6
  %27 = load ptr, ptr %26, align 8, !tbaa !57
  %28 = icmp ne ptr %27, null
  br i1 %28, label %29, label %77

29:                                               ; preds = %24
  store i32 0, ptr %5, align 4, !tbaa !3
  br label %30

30:                                               ; preds = %61, %29
  %31 = load i32, ptr %5, align 4, !tbaa !3
  %32 = load ptr, ptr %3, align 8, !tbaa !44
  %33 = getelementptr inbounds nuw %struct.Mem_Step_t_, ptr %32, i32 0, i32 5
  %34 = load i32, ptr %33, align 4, !tbaa !58
  %35 = icmp slt i32 %31, %34
  br i1 %35, label %36, label %64

36:                                               ; preds = %30
  %37 = load ptr, ptr %3, align 8, !tbaa !44
  %38 = getelementptr inbounds nuw %struct.Mem_Step_t_, ptr %37, i32 0, i32 6
  %39 = load ptr, ptr %38, align 8, !tbaa !57
  %40 = load i32, ptr %5, align 4, !tbaa !3
  %41 = sext i32 %40 to i64
  %42 = getelementptr inbounds ptr, ptr %39, i64 %41
  %43 = load ptr, ptr %42, align 8, !tbaa !59
  %44 = icmp ne ptr %43, null
  br i1 %44, label %45, label %59

45:                                               ; preds = %36
  %46 = load ptr, ptr %3, align 8, !tbaa !44
  %47 = getelementptr inbounds nuw %struct.Mem_Step_t_, ptr %46, i32 0, i32 6
  %48 = load ptr, ptr %47, align 8, !tbaa !57
  %49 = load i32, ptr %5, align 4, !tbaa !3
  %50 = sext i32 %49 to i64
  %51 = getelementptr inbounds ptr, ptr %48, i64 %50
  %52 = load ptr, ptr %51, align 8, !tbaa !59
  call void @free(ptr noundef %52) #7
  %53 = load ptr, ptr %3, align 8, !tbaa !44
  %54 = getelementptr inbounds nuw %struct.Mem_Step_t_, ptr %53, i32 0, i32 6
  %55 = load ptr, ptr %54, align 8, !tbaa !57
  %56 = load i32, ptr %5, align 4, !tbaa !3
  %57 = sext i32 %56 to i64
  %58 = getelementptr inbounds ptr, ptr %55, i64 %57
  store ptr null, ptr %58, align 8, !tbaa !59
  br label %60

59:                                               ; preds = %36
  br label %60

60:                                               ; preds = %59, %45
  br label %61

61:                                               ; preds = %60
  %62 = load i32, ptr %5, align 4, !tbaa !3
  %63 = add nsw i32 %62, 1
  store i32 %63, ptr %5, align 4, !tbaa !3
  br label %30, !llvm.loop !60

64:                                               ; preds = %30
  %65 = load ptr, ptr %3, align 8, !tbaa !44
  %66 = getelementptr inbounds nuw %struct.Mem_Step_t_, ptr %65, i32 0, i32 6
  %67 = load ptr, ptr %66, align 8, !tbaa !57
  %68 = icmp ne ptr %67, null
  br i1 %68, label %69, label %75

69:                                               ; preds = %64
  %70 = load ptr, ptr %3, align 8, !tbaa !44
  %71 = getelementptr inbounds nuw %struct.Mem_Step_t_, ptr %70, i32 0, i32 6
  %72 = load ptr, ptr %71, align 8, !tbaa !57
  call void @free(ptr noundef %72) #7
  %73 = load ptr, ptr %3, align 8, !tbaa !44
  %74 = getelementptr inbounds nuw %struct.Mem_Step_t_, ptr %73, i32 0, i32 6
  store ptr null, ptr %74, align 8, !tbaa !57
  br label %76

75:                                               ; preds = %64
  br label %76

76:                                               ; preds = %75, %69
  br label %77

77:                                               ; preds = %76, %24
  %78 = load ptr, ptr %3, align 8, !tbaa !44
  %79 = getelementptr inbounds nuw %struct.Mem_Step_t_, ptr %78, i32 0, i32 1
  %80 = load ptr, ptr %79, align 8, !tbaa !49
  %81 = icmp ne ptr %80, null
  br i1 %81, label %82, label %88

82:                                               ; preds = %77
  %83 = load ptr, ptr %3, align 8, !tbaa !44
  %84 = getelementptr inbounds nuw %struct.Mem_Step_t_, ptr %83, i32 0, i32 1
  %85 = load ptr, ptr %84, align 8, !tbaa !49
  call void @free(ptr noundef %85) #7
  %86 = load ptr, ptr %3, align 8, !tbaa !44
  %87 = getelementptr inbounds nuw %struct.Mem_Step_t_, ptr %86, i32 0, i32 1
  store ptr null, ptr %87, align 8, !tbaa !49
  br label %89

88:                                               ; preds = %77
  br label %89

89:                                               ; preds = %88, %82
  %90 = load ptr, ptr %3, align 8, !tbaa !44
  %91 = getelementptr inbounds nuw %struct.Mem_Step_t_, ptr %90, i32 0, i32 3
  %92 = load ptr, ptr %91, align 8, !tbaa !52
  %93 = icmp ne ptr %92, null
  br i1 %93, label %94, label %100

94:                                               ; preds = %89
  %95 = load ptr, ptr %3, align 8, !tbaa !44
  %96 = getelementptr inbounds nuw %struct.Mem_Step_t_, ptr %95, i32 0, i32 3
  %97 = load ptr, ptr %96, align 8, !tbaa !52
  call void @free(ptr noundef %97) #7
  %98 = load ptr, ptr %3, align 8, !tbaa !44
  %99 = getelementptr inbounds nuw %struct.Mem_Step_t_, ptr %98, i32 0, i32 3
  store ptr null, ptr %99, align 8, !tbaa !52
  br label %101

100:                                              ; preds = %89
  br label %101

101:                                              ; preds = %100, %94
  %102 = load ptr, ptr %3, align 8, !tbaa !44
  %103 = icmp ne ptr %102, null
  br i1 %103, label %104, label %106

104:                                              ; preds = %101
  %105 = load ptr, ptr %3, align 8, !tbaa !44
  call void @free(ptr noundef %105) #7
  store ptr null, ptr %3, align 8, !tbaa !44
  br label %107

106:                                              ; preds = %101
  br label %107

107:                                              ; preds = %106, %104
  call void @llvm.lifetime.end.p0(i64 4, ptr %5) #7
  ret void
}