; Function Attrs: nounwind uwtable
define void @Mem_StepStop(ptr noundef captures(none) %0, i32 noundef %1) local_unnamed_addr #2 {
  %3 = load i32, ptr %0, align 8, !tbaa !39
  %4 = icmp sgt i32 %3, 0
  br i1 %4, label %.lr.ph, label %._crit_edge

.lr.ph:                                           ; preds = %2
  %5 = getelementptr inbounds nuw i8, ptr %0, i64 8
  br label %6

6:                                                ; preds = %.lr.ph, %6
  %indvars.iv = phi i64 [ 0, %.lr.ph ], [ %indvars.iv.next, %6 ]
  %7 = load ptr, ptr %5, align 8, !tbaa !42
  %8 = getelementptr inbounds nuw ptr, ptr %7, i64 %indvars.iv
  %9 = load ptr, ptr %8, align 8, !tbaa !43
  tail call void @Mem_FixedStop(ptr noundef %9, i32 noundef %1)
  %indvars.iv.next = add nuw nsw i64 %indvars.iv, 1
  %10 = load i32, ptr %0, align 8, !tbaa !39
  %11 = sext i32 %10 to i64
  %12 = icmp slt i64 %indvars.iv.next, %11
  br i1 %12, label %6, label %._crit_edge, !llvm.loop !51

._crit_edge:                                      ; preds = %6, %2
  %13 = getelementptr inbounds nuw i8, ptr %0, i64 40
  %14 = load ptr, ptr %13, align 8, !tbaa !52
  %.not = icmp eq ptr %14, null
  br i1 %.not, label %30, label %.preheader

.preheader:                                       ; preds = %._crit_edge
  %15 = getelementptr inbounds nuw i8, ptr %0, i64 36
  %16 = load i32, ptr %15, align 4, !tbaa !53
  %17 = icmp sgt i32 %16, 0
  br i1 %17, label %.lr.ph36, label %._crit_edge37.thread

.lr.ph36:                                         ; preds = %.preheader, %25
  %18 = phi i32 [ %26, %25 ], [ %16, %.preheader ]
  %indvars.iv39 = phi i64 [ %indvars.iv.next40, %25 ], [ 0, %.preheader ]
  %19 = load ptr, ptr %13, align 8, !tbaa !52
  %20 = getelementptr inbounds nuw ptr, ptr %19, i64 %indvars.iv39
  %21 = load ptr, ptr %20, align 8, !tbaa !54
  %.not33 = icmp eq ptr %21, null
  br i1 %.not33, label %25, label %22

22:                                               ; preds = %.lr.ph36
  tail call void @free(ptr noundef nonnull %21) #15
  %23 = load ptr, ptr %13, align 8, !tbaa !52
  %24 = getelementptr inbounds nuw ptr, ptr %23, i64 %indvars.iv39
  store ptr null, ptr %24, align 8, !tbaa !54
  %.pre = load i32, ptr %15, align 4, !tbaa !53
  br label %25

25:                                               ; preds = %22, %.lr.ph36
  %26 = phi i32 [ %.pre, %22 ], [ %18, %.lr.ph36 ]
  %indvars.iv.next40 = add nuw nsw i64 %indvars.iv39, 1
  %27 = sext i32 %26 to i64
  %28 = icmp slt i64 %indvars.iv.next40, %27
  br i1 %28, label %.lr.ph36, label %._crit_edge37, !llvm.loop !55

._crit_edge37:                                    ; preds = %25
  %.pre42 = load ptr, ptr %13, align 8, !tbaa !52
  %.not30 = icmp eq ptr %.pre42, null
  br i1 %.not30, label %30, label %._crit_edge37.thread

._crit_edge37.thread:                             ; preds = %.preheader, %._crit_edge37
  %29 = phi ptr [ %.pre42, %._crit_edge37 ], [ %14, %.preheader ]
  tail call void @free(ptr noundef nonnull %29) #15
  store ptr null, ptr %13, align 8, !tbaa !52
  br label %30

30:                                               ; preds = %._crit_edge37.thread, %._crit_edge37, %._crit_edge
  %31 = getelementptr inbounds nuw i8, ptr %0, i64 8
  %32 = load ptr, ptr %31, align 8, !tbaa !42
  %.not31 = icmp eq ptr %32, null
  br i1 %.not31, label %34, label %33

33:                                               ; preds = %30
  tail call void @free(ptr noundef nonnull %32) #15
  store ptr null, ptr %31, align 8, !tbaa !42
  br label %34

34:                                               ; preds = %30, %33
  %35 = getelementptr inbounds nuw i8, ptr %0, i64 24
  %36 = load ptr, ptr %35, align 8, !tbaa !47
  %.not32 = icmp eq ptr %36, null
  br i1 %.not32, label %38, label %37

37:                                               ; preds = %34
  tail call void @free(ptr noundef nonnull %36) #15
  br label %38

38:                                               ; preds = %37, %34
  tail call void @free(ptr noundef nonnull %0) #15
  ret void
}